; Function Attrs: mustprogress nounwind uwtable
define internal void @"_ZNSt17_Function_handlerIFvN4llvm9StringRefEjEZNS0_13DWARFVerifier9summarizeEvE3$_0E9_M_invokeERKSt9_Any_dataOS1_Oj"(ptr nocapture noundef nonnull readonly align 8 dereferenceable(16) %0, ptr nocapture noundef nonnull readonly align 8 dereferenceable(16) %1, ptr nocapture noundef nonnull readonly align 4 dereferenceable(4) %2) #0 align 2 {
  %.val = load ptr, ptr %0, align 8
  %.val3 = load ptr, ptr %1, align 8
  %4 = getelementptr inbounds i8, ptr %1, i64 8
  %.val4 = load i64, ptr %4, align 8
  %.val5 = load i32, ptr %2, align 4
  %.val.val = load ptr, ptr %.val, align 8
  %5 = tail call noundef nonnull align 8 dereferenceable(48) ptr @_ZN4llvm9WithColor5errorERNS_11raw_ostreamENS_9StringRefEb(ptr noundef nonnull align 8 dereferenceable(48) %.val.val, ptr nonnull @.str.145, i64 0, i1 noundef zeroext false) #26
  %6 = getelementptr inbounds nuw i8, ptr %5, i64 24
  %7 = load ptr, ptr %6, align 8
  %8 = getelementptr inbounds nuw i8, ptr %5, i64 32
  %9 = load ptr, ptr %8, align 8
  %10 = ptrtoint ptr %7 to i64
  %11 = ptrtoint ptr %9 to i64
  %12 = sub i64 %10, %11
  %13 = icmp ugt i64 %.val4, %12
  br i1 %13, label %14, label %16

14:                                               ; preds = %3
  %15 = tail call noundef nonnull align 8 dereferenceable(48) ptr @_ZN4llvm11raw_ostream5writeEPKcm(ptr noundef nonnull align 8 dereferenceable(48) %5, ptr noundef %.val3, i64 noundef %.val4) #26
  %.phi.trans.insert.i.i.i = getelementptr inbounds nuw i8, ptr %15, i64 32
  %.pre.i.i.i = load ptr, ptr %.phi.trans.insert.i.i.i, align 8
  br label %_ZN4llvm11raw_ostreamlsENS_9StringRefE.exit.i.i.i

16:                                               ; preds = %3
  %.not.i.i.i.i = icmp eq i64 %.val4, 0
  br i1 %.not.i.i.i.i, label %_ZN4llvm11raw_ostreamlsENS_9StringRefE.exit.i.i.i, label %17

17:                                               ; preds = %16
  tail call void @llvm.memcpy.p0.p0.i64(ptr align 1 %9, ptr align 1 %.val3, i64 %.val4, i1 false)
  %18 = load ptr, ptr %8, align 8
  %19 = getelementptr inbounds i8, ptr %18, i64 %.val4
  store ptr %19, ptr %8, align 8
  br label %_ZN4llvm11raw_ostreamlsENS_9StringRefE.exit.i.i.i

_ZN4llvm11raw_ostreamlsENS_9StringRefE.exit.i.i.i: ; preds = %17, %16, %14
  %20 = phi ptr [ %.pre.i.i.i, %14 ], [ %19, %17 ], [ %9, %16 ]
  %.0.i.i.i.i = phi ptr [ %15, %14 ], [ %5, %17 ], [ %5, %16 ]
  %21 = getelementptr inbounds nuw i8, ptr %.0.i.i.i.i, i64 24
  %22 = load ptr, ptr %21, align 8
  %23 = ptrtoint ptr %22 to i64
  %24 = ptrtoint ptr %20 to i64
  %25 = sub i64 %23, %24
  %26 = icmp ult i64 %25, 10
  br i1 %26, label %27, label %29

27:                                               ; preds = %_ZN4llvm11raw_ostreamlsENS_9StringRefE.exit.i.i.i
  %28 = tail call noundef nonnull align 8 dereferenceable(48) ptr @_ZN4llvm11raw_ostream5writeEPKcm(ptr noundef nonnull align 8 dereferenceable(48) %.0.i.i.i.i, ptr noundef nonnull @.str.269, i64 noundef 10) #26
  br label %_ZN4llvm11raw_ostreamlsEPKc.exit.i.i.i

29:                                               ; preds = %_ZN4llvm11raw_ostreamlsENS_9StringRefE.exit.i.i.i
  %30 = getelementptr inbounds nuw i8, ptr %.0.i.i.i.i, i64 32
  tail call void @llvm.memcpy.p0.p0.i64(ptr noundef nonnull align 1 dereferenceable(10) %20, ptr noundef nonnull align 1 dereferenceable(10) @.str.269, i64 10, i1 false)
  %31 = load ptr, ptr %30, align 8
  %32 = getelementptr inbounds i8, ptr %31, i64 10
  store ptr %32, ptr %30, align 8
  br label %_ZN4llvm11raw_ostreamlsEPKc.exit.i.i.i

_ZN4llvm11raw_ostreamlsEPKc.exit.i.i.i:           ; preds = %29, %27
  %.0.i.i.i.i.i = phi ptr [ %28, %27 ], [ %.0.i.i.i.i, %29 ]
  %33 = zext i32 %.val5 to i64
  %34 = tail call noundef nonnull align 8 dereferenceable(48) ptr @_ZN4llvm11raw_ostreamlsEm(ptr noundef nonnull align 8 dereferenceable(48) %.0.i.i.i.i.i, i64 noundef %33) #26
  %35 = getelementptr inbounds nuw i8, ptr %34, i64 24
  %36 = load ptr, ptr %35, align 8
  %37 = getelementptr inbounds nuw i8, ptr %34, i64 32
  %38 = load ptr, ptr %37, align 8
  %39 = ptrtoint ptr %36 to i64
  %40 = ptrtoint ptr %38 to i64
  %41 = sub i64 %39, %40
  %42 = icmp ult i64 %41, 10
  br i1 %42, label %43, label %45

43:                                               ; preds = %_ZN4llvm11raw_ostreamlsEPKc.exit.i.i.i
  %44 = tail call noundef nonnull align 8 dereferenceable(48) ptr @_ZN4llvm11raw_ostream5writeEPKcm(ptr noundef nonnull align 8 dereferenceable(48) %34, ptr noundef nonnull @.str.270, i64 noundef 10) #26
  br label %"_ZSt10__invoke_rIvRZN4llvm13DWARFVerifier9summarizeEvE3$_0JNS0_9StringRefEjEENSt9enable_ifIX16is_invocable_r_vIT_T0_DpT1_EES6_E4typeEOS7_DpOS8_.exit"

45:                                               ; preds = %_ZN4llvm11raw_ostreamlsEPKc.exit.i.i.i
  tail call void @llvm.memcpy.p0.p0.i64(ptr noundef nonnull align 1 dereferenceable(10) %38, ptr noundef nonnull align 1 dereferenceable(10) @.str.270, i64 10, i1 false)
  %46 = load ptr, ptr %37, align 8
  %47 = getelementptr inbounds i8, ptr %46, i64 10
  store ptr %47, ptr %37, align 8
  br label %"_ZSt10__invoke_rIvRZN4llvm13DWARFVerifier9summarizeEvE3$_0JNS0_9StringRefEjEENSt9enable_ifIX16is_invocable_r_vIT_T0_DpT1_EES6_E4typeEOS7_DpOS8_.exit"

"_ZSt10__invoke_rIvRZN4llvm13DWARFVerifier9summarizeEvE3$_0JNS0_9StringRefEjEENSt9enable_ifIX16is_invocable_r_vIT_T0_DpT1_EES6_E4typeEOS7_DpOS8_.exit": ; preds = %43, %45
  ret void
}